; Function Attrs: mustprogress uwtable
define void @_ZN11OpenImageIO6v3_1_07Strutil11sync_outputERSoNS0_17basic_string_viewIcSt11char_traitsIcEEEb(ptr noundef nonnull align 8 dereferenceable(8) %0, ptr noundef readonly captures(none) %1, i1 noundef zeroext %2) local_unnamed_addr #6 personality ptr @__gxx_personality_v0 {
  %4 = getelementptr inbounds nuw i8, ptr %1, i64 8
  %5 = load i64, ptr %4, align 8, !tbaa !64
  %.not = icmp eq i64 %5, 0
  br i1 %.not, label %25, label %6

6:                                                ; preds = %3
  %7 = tail call noundef i32 @pthread_mutex_lock(ptr noundef nonnull align 8 dereferenceable(40) @_ZN11OpenImageIO6v3_1_012_GLOBAL__N_112output_mutexE) #16
  %.not.i.i.i = icmp eq i32 %7, 0
  br i1 %.not.i.i.i, label %_ZNSt11unique_lockISt5mutexEC2ERS0_.exit, label %8

8:                                                ; preds = %6
  tail call void @_ZSt20__throw_system_errori(i32 noundef %7) #44
  unreachable

_ZNSt11unique_lockISt5mutexEC2ERS0_.exit:         ; preds = %6
  %9 = load ptr, ptr %0, align 8, !tbaa !68
  %10 = getelementptr i8, ptr %9, i64 -24
  %11 = load i64, ptr %10, align 8
  %12 = getelementptr inbounds i8, ptr %0, i64 %11
  %13 = getelementptr inbounds nuw i8, ptr %12, i64 32
  %14 = load i32, ptr %13, align 8, !tbaa !70
  %15 = icmp eq i32 %14, 0
  br i1 %15, label %16, label %_ZN11OpenImageIO6v3_1_0lsERSoRKNS0_17basic_string_viewIcSt11char_traitsIcEEE.exit

16:                                               ; preds = %_ZNSt11unique_lockISt5mutexEC2ERS0_.exit
  %17 = load ptr, ptr %1, align 8, !tbaa !67
  %18 = load i64, ptr %4, align 8, !tbaa !64
  %19 = invoke noundef nonnull align 8 dereferenceable(8) ptr @_ZNSo5writeEPKcl(ptr noundef nonnull align 8 dereferenceable(8) %0, ptr noundef %17, i64 noundef %18)
          to label %_ZN11OpenImageIO6v3_1_0lsERSoRKNS0_17basic_string_viewIcSt11char_traitsIcEEE.exit unwind label %_ZNSt11unique_lockISt5mutexED2Ev.exit

_ZN11OpenImageIO6v3_1_0lsERSoRKNS0_17basic_string_viewIcSt11char_traitsIcEEE.exit: ; preds = %_ZNSt11unique_lockISt5mutexEC2ERS0_.exit, %16
  br i1 %2, label %20, label %_ZNSt11unique_lockISt5mutexED2Ev.exit5

20:                                               ; preds = %_ZN11OpenImageIO6v3_1_0lsERSoRKNS0_17basic_string_viewIcSt11char_traitsIcEEE.exit
  %21 = invoke noundef nonnull align 8 dereferenceable(8) ptr @_ZNSo5flushEv(ptr noundef nonnull align 8 dereferenceable(8) %0)
          to label %_ZNSt11unique_lockISt5mutexED2Ev.exit5 unwind label %_ZNSt11unique_lockISt5mutexED2Ev.exit

_ZNSt11unique_lockISt5mutexED2Ev.exit:            ; preds = %20, %16
  %22 = landingpad { ptr, i32 }
          cleanup
  %23 = tail call noundef i32 @pthread_mutex_unlock(ptr noundef nonnull align 8 dereferenceable(40) @_ZN11OpenImageIO6v3_1_012_GLOBAL__N_112output_mutexE) #16
  resume { ptr, i32 } %22

_ZNSt11unique_lockISt5mutexED2Ev.exit5:           ; preds = %_ZN11OpenImageIO6v3_1_0lsERSoRKNS0_17basic_string_viewIcSt11char_traitsIcEEE.exit, %20
  %24 = tail call noundef i32 @pthread_mutex_unlock(ptr noundef nonnull align 8 dereferenceable(40) @_ZN11OpenImageIO6v3_1_012_GLOBAL__N_112output_mutexE) #16
  br label %25

25:                                               ; preds = %_ZNSt11unique_lockISt5mutexED2Ev.exit5, %3
  ret void
}